target datalayout = "e-m:e-p270:32:32-p271:32:32-p272:64:64-i64:64-i128:128-f80:128-n8:16:32:64-S128"
target triple = "x86_64-pc-linux-gnu"

%"class.VrmlTranslator::Buffer" = type <{ ptr, ptr, i32, i32, i32, i32, i32, [4 x i8], ptr, i8, [7 x i8] }>

; Function Attrs: mustprogress uwtable
define noundef i32 @_ZN14VrmlTranslator6Buffer19ReadNextStreamChunkEv(ptr noundef nonnull align 8 dereferenceable(49) %0) #1 align 2 {
  %2 = alloca i32, align 4
  %3 = alloca ptr, align 8
  %4 = alloca i32, align 4
  %5 = alloca ptr, align 8
  %6 = alloca i32, align 4
  store ptr %0, ptr %3, align 8
  %7 = load ptr, ptr %3, align 8
  %8 = getelementptr inbounds %"class.VrmlTranslator::Buffer", ptr %7, i32 0, i32 2
  %9 = load i32, ptr %8, align 8
  %10 = getelementptr inbounds %"class.VrmlTranslator::Buffer", ptr %7, i32 0, i32 4
  %11 = load i32, ptr %10, align 8
  %12 = sub nsw i32 %9, %11
  store i32 %12, ptr %4, align 4
  %13 = load i32, ptr %4, align 4
  %14 = icmp eq i32 %13, 0
  br i1 %14, label %15, label %40

15:                                               ; preds = %1
  %16 = getelementptr inbounds %"class.VrmlTranslator::Buffer", ptr %7, i32 0, i32 4
  %17 = load i32, ptr %16, align 8
  %18 = mul nsw i32 %17, 2
  %19 = getelementptr inbounds %"class.VrmlTranslator::Buffer", ptr %7, i32 0, i32 2
  store i32 %18, ptr %19, align 8
  %20 = getelementptr inbounds %"class.VrmlTranslator::Buffer", ptr %7, i32 0, i32 2
  %21 = load i32, ptr %20, align 8
  %22 = sext i32 %21 to i64
  %23 = call noalias noundef nonnull ptr @_Znam(i64 noundef %22) #14
  store ptr %23, ptr %5, align 8
  %24 = load ptr, ptr %5, align 8
  %25 = getelementptr inbounds %"class.VrmlTranslator::Buffer", ptr %7, i32 0, i32 1
  %26 = load ptr, ptr %25, align 8
  %27 = getelementptr inbounds %"class.VrmlTranslator::Buffer", ptr %7, i32 0, i32 4
  %28 = load i32, ptr %27, align 8
  %29 = sext i32 %28 to i64
  %30 = mul i64 %29, 1
  call void @llvm.memcpy.p0.p0.i64(ptr align 1 %24, ptr align 1 %26, i64 %30, i1 false)
  %31 = getelementptr inbounds %"class.VrmlTranslator::Buffer", ptr %7, i32 0, i32 1
  %32 = load ptr, ptr %31, align 8
  %33 = icmp eq ptr %32, null
  br i1 %33, label %35, label %34

34:                                               ; preds = %15
  call void @_ZdaPv(ptr noundef %32) #13
  br label %35

35:                                               ; preds = %34, %15
  %36 = load ptr, ptr %5, align 8
  %37 = getelementptr inbounds %"class.VrmlTranslator::Buffer", ptr %7, i32 0, i32 1
  store ptr %36, ptr %37, align 8
  %38 = getelementptr inbounds %"class.VrmlTranslator::Buffer", ptr %7, i32 0, i32 4
  %39 = load i32, ptr %38, align 8
  store i32 %39, ptr %4, align 4
  br label %40

40:                                               ; preds = %35, %1
  %41 = getelementptr inbounds %"class.VrmlTranslator::Buffer", ptr %7, i32 0, i32 1
  %42 = load ptr, ptr %41, align 8
  %43 = getelementptr inbounds %"class.VrmlTranslator::Buffer", ptr %7, i32 0, i32 4
  %44 = load i32, ptr %43, align 8
  %45 = sext i32 %44 to i64
  %46 = getelementptr inbounds i8, ptr %42, i64 %45
  %47 = load i32, ptr %4, align 4
  %48 = sext i32 %47 to i64
  %49 = getelementptr inbounds %"class.VrmlTranslator::Buffer", ptr %7, i32 0, i32 8
  %50 = load ptr, ptr %49, align 8
  %51 = call i64 @fread(ptr noundef %46, i64 noundef 1, i64 noundef %48, ptr noundef %50)
  %52 = trunc i64 %51 to i32
  store i32 %52, ptr %6, align 4
  %53 = load i32, ptr %6, align 4
  %54 = icmp sgt i32 %53, 0
  br i1 %54, label %55, label %63

55:                                               ; preds = %40
  %56 = getelementptr inbounds %"class.VrmlTranslator::Buffer", ptr %7, i32 0, i32 4
  %57 = load i32, ptr %56, align 8
  %58 = load i32, ptr %6, align 4
  %59 = add nsw i32 %57, %58
  %60 = getelementptr inbounds %"class.VrmlTranslator::Buffer", ptr %7, i32 0, i32 4
  store i32 %59, ptr %60, align 8
  %61 = getelementptr inbounds %"class.VrmlTranslator::Buffer", ptr %7, i32 0, i32 5
  store i32 %59, ptr %61, align 4
  %62 = load i32, ptr %6, align 4
  store i32 %62, ptr %2, align 4
  br label %64

63:                                               ; preds = %40
  store i32 0, ptr %2, align 4
  br label %64

64:                                               ; preds = %63, %55
  %65 = load i32, ptr %2, align 4
  ret i32 %65
}

; Function Attrs: mustprogress uwtable
define noundef zeroext i1 @_ZN14VrmlTranslator6Buffer7CanSeekEv(ptr noundef nonnull align 8 dereferenceable(49) %0) #1 align 2 {
  %2 = alloca ptr, align 8
  store ptr %0, ptr %2, align 8
  %3 = load ptr, ptr %2, align 8
  %4 = getelementptr inbounds %"class.VrmlTranslator::Buffer", ptr %3, i32 0, i32 8
  %5 = load ptr, ptr %4, align 8
  %6 = icmp ne ptr %5, null
  br i1 %6, label %7, label %12

7:                                                ; preds = %1
  %8 = getelementptr inbounds %"class.VrmlTranslator::Buffer", ptr %3, i32 0, i32 8
  %9 = load ptr, ptr %8, align 8
  %10 = call i64 @ftell(ptr noundef %9)
  %11 = icmp ne i64 %10, -1
  br label %12

12:                                               ; preds = %7, %1
  %13 = phi i1 [ false, %1 ], [ %11, %7 ]
  ret i1 %13
}

; Function Attrs: mustprogress uwtable
define noundef i32 @_ZN14VrmlTranslator6Buffer4ReadEv(ptr noundef nonnull align 8 dereferenceable(49) %0) unnamed_addr #1 align 2 {
  %2 = alloca i32, align 4
  %3 = alloca ptr, align 8
  store ptr %0, ptr %3, align 8
  %4 = load ptr, ptr %3, align 8
  %5 = getelementptr inbounds %"class.VrmlTranslator::Buffer", ptr %4, i32 0, i32 6
  %6 = load i32, ptr %5, align 8
  %7 = getelementptr inbounds %"class.VrmlTranslator::Buffer", ptr %4, i32 0, i32 4
  %8 = load i32, ptr %7, align 8
  %9 = icmp slt i32 %6, %8
  br i1 %9, label %10, label %20

10:                                               ; preds = %1
  %11 = getelementptr inbounds %"class.VrmlTranslator::Buffer", ptr %4, i32 0, i32 1
  %12 = load ptr, ptr %11, align 8
  %13 = getelementptr inbounds %"class.VrmlTranslator::Buffer", ptr %4, i32 0, i32 6
  %14 = load i32, ptr %13, align 8
  %15 = add nsw i32 %14, 1
  store i32 %15, ptr %13, align 8
  %16 = sext i32 %14 to i64
  %17 = getelementptr inbounds i8, ptr %12, i64 %16
  %18 = load i8, ptr %17, align 1
  %19 = zext i8 %18 to i32
  store i32 %19, ptr %2, align 4
  br label %65

20:                                               ; preds = %1
  %21 = load ptr, ptr %4, align 8
  %22 = getelementptr inbounds ptr, ptr %21, i64 6
  %23 = load ptr, ptr %22, align 8
  %24 = call noundef i32 %23(ptr noundef nonnull align 8 dereferenceable(49) %4)
  %25 = getelementptr inbounds %"class.VrmlTranslator::Buffer", ptr %4, i32 0, i32 5
  %26 = load i32, ptr %25, align 4
  %27 = icmp slt i32 %24, %26
  br i1 %27, label %28, label %45

28:                                               ; preds = %20
  %29 = load ptr, ptr %4, align 8
  %30 = getelementptr inbounds ptr, ptr %29, i64 6
  %31 = load ptr, ptr %30, align 8
  %32 = call noundef i32 %31(ptr noundef nonnull align 8 dereferenceable(49) %4)
  %33 = load ptr, ptr %4, align 8
  %34 = getelementptr inbounds ptr, ptr %33, i64 7
  %35 = load ptr, ptr %34, align 8
  call void %35(ptr noundef nonnull align 8 dereferenceable(49) %4, i32 noundef %32)
  %36 = getelementptr inbounds %"class.VrmlTranslator::Buffer", ptr %4, i32 0, i32 1
  %37 = load ptr, ptr %36, align 8
  %38 = getelementptr inbounds %"class.VrmlTranslator::Buffer", ptr %4, i32 0, i32 6
  %39 = load i32, ptr %38, align 8
  %40 = add nsw i32 %39, 1
  store i32 %40, ptr %38, align 8
  %41 = sext i32 %39 to i64
  %42 = getelementptr inbounds i8, ptr %37, i64 %41
  %43 = load i8, ptr %42, align 1
  %44 = zext i8 %43 to i32
  store i32 %44, ptr %2, align 4
  br label %65

45:                                               ; preds = %20
  %46 = getelementptr inbounds %"class.VrmlTranslator::Buffer", ptr %4, i32 0, i32 8
  %47 = load ptr, ptr %46, align 8
  %48 = icmp ne ptr %47, null
  br i1 %48, label %49, label %64

49:                                               ; preds = %45
  %50 = call noundef zeroext i1 @_ZN14VrmlTranslator6Buffer7CanSeekEv(ptr noundef nonnull align 8 dereferenceable(49) %4)
  br i1 %50, label %64, label %51

51:                                               ; preds = %49
  %52 = call noundef i32 @_ZN14VrmlTranslator6Buffer19ReadNextStreamChunkEv(ptr noundef nonnull align 8 dereferenceable(49) %4)
  %53 = icmp sgt i32 %52, 0
  br i1 %53, label %54, label %64

54:                                               ; preds = %51
  %55 = getelementptr inbounds %"class.VrmlTranslator::Buffer", ptr %4, i32 0, i32 1
  %56 = load ptr, ptr %55, align 8
  %57 = getelementptr inbounds %"class.VrmlTranslator::Buffer", ptr %4, i32 0, i32 6
  %58 = load i32, ptr %57, align 8
  %59 = add nsw i32 %58, 1
  store i32 %59, ptr %57, align 8
  %60 = sext i32 %58 to i64
  %61 = getelementptr inbounds i8, ptr %56, i64 %60
  %62 = load i8, ptr %61, align 1
  %63 = zext i8 %62 to i32
  store i32 %63, ptr %2, align 4
  br label %65

64:                                               ; preds = %51, %49, %45
  store i32 65536, ptr %2, align 4
  br label %65

65:                                               ; preds = %64, %54, %28, %10
  %66 = load i32, ptr %2, align 4
  ret i32 %66
}