; Function Attrs: mustprogress uwtable
define noundef i32 @_ZN14VrmlTranslator6Buffer4ReadEv(ptr noundef nonnull align 8 dereferenceable(49) %0) unnamed_addr #2 align 2 {
  %2 = getelementptr inbounds i8, ptr %0, i64 32
  %3 = load i32, ptr %2, align 8
  %4 = getelementptr inbounds i8, ptr %0, i64 24
  %5 = load i32, ptr %4, align 8
  %6 = icmp slt i32 %3, %5
  br i1 %6, label %_ZN14VrmlTranslator6Buffer19ReadNextStreamChunkEv.exit.thread.sink.split, label %7

7:                                                ; preds = %1
  %8 = load ptr, ptr %0, align 8
  %9 = getelementptr inbounds i8, ptr %8, i64 48
  %10 = load ptr, ptr %9, align 8
  %11 = tail call noundef i32 %10(ptr noundef nonnull align 8 dereferenceable(49) %0)
  %12 = getelementptr inbounds i8, ptr %0, i64 28
  %13 = load i32, ptr %12, align 4
  %14 = icmp slt i32 %11, %13
  br i1 %14, label %15, label %24

15:                                               ; preds = %7
  %16 = load ptr, ptr %0, align 8
  %17 = getelementptr inbounds i8, ptr %16, i64 48
  %18 = load ptr, ptr %17, align 8
  %19 = tail call noundef i32 %18(ptr noundef nonnull align 8 dereferenceable(49) %0)
  %20 = load ptr, ptr %0, align 8
  %21 = getelementptr inbounds i8, ptr %20, i64 56
  %22 = load ptr, ptr %21, align 8
  tail call void %22(ptr noundef nonnull align 8 dereferenceable(49) %0, i32 noundef %19)
  %23 = load i32, ptr %2, align 8
  br label %_ZN14VrmlTranslator6Buffer19ReadNextStreamChunkEv.exit.thread.sink.split

24:                                               ; preds = %7
  %25 = getelementptr inbounds i8, ptr %0, i64 40
  %26 = load ptr, ptr %25, align 8
  %.not = icmp eq ptr %26, null
  br i1 %.not, label %_ZN14VrmlTranslator6Buffer19ReadNextStreamChunkEv.exit.thread, label %_ZN14VrmlTranslator6Buffer7CanSeekEv.exit

_ZN14VrmlTranslator6Buffer7CanSeekEv.exit:        ; preds = %24
  %27 = tail call i64 @ftell(ptr noundef nonnull %26)
  %.not5 = icmp eq i64 %27, -1
  br i1 %.not5, label %28, label %_ZN14VrmlTranslator6Buffer19ReadNextStreamChunkEv.exit.thread

28:                                               ; preds = %_ZN14VrmlTranslator6Buffer7CanSeekEv.exit
  %29 = getelementptr inbounds i8, ptr %0, i64 16
  %30 = load i32, ptr %29, align 8
  %31 = load i32, ptr %4, align 8
  %32 = sub nsw i32 %30, %31
  %33 = icmp eq i32 %32, 0
  br i1 %33, label %34, label %._crit_edge.i

._crit_edge.i:                                    ; preds = %28
  %.phi.trans.insert.i = getelementptr inbounds i8, ptr %0, i64 8
  %.pre12.i = load ptr, ptr %.phi.trans.insert.i, align 8
  br label %45

34:                                               ; preds = %28
  %35 = shl nsw i32 %31, 1
  store i32 %35, ptr %29, align 8
  %36 = sext i32 %35 to i64
  %37 = tail call noalias noundef nonnull ptr @_Znam(i64 noundef %36) #21
  %38 = getelementptr inbounds i8, ptr %0, i64 8
  %39 = load ptr, ptr %38, align 8
  %40 = sext i32 %31 to i64
  tail call void @llvm.memcpy.p0.p0.i64(ptr nonnull align 1 %37, ptr align 1 %39, i64 %40, i1 false)
  %41 = icmp eq ptr %39, null
  br i1 %41, label %43, label %42

42:                                               ; preds = %34
  tail call void @_ZdaPv(ptr noundef nonnull %39) #20
  %.pre.i = load i32, ptr %4, align 8
  br label %43

43:                                               ; preds = %42, %34
  %44 = phi i32 [ %.pre.i, %42 ], [ %31, %34 ]
  store ptr %37, ptr %38, align 8
  br label %45

45:                                               ; preds = %43, %._crit_edge.i
  %46 = phi i32 [ %44, %43 ], [ %31, %._crit_edge.i ]
  %47 = phi ptr [ %37, %43 ], [ %.pre12.i, %._crit_edge.i ]
  %.08.i = phi i32 [ %44, %43 ], [ %32, %._crit_edge.i ]
  %48 = sext i32 %46 to i64
  %49 = getelementptr inbounds i8, ptr %47, i64 %48
  %50 = sext i32 %.08.i to i64
  %51 = load ptr, ptr %25, align 8
  %52 = tail call i64 @fread(ptr noundef %49, i64 noundef 1, i64 noundef %50, ptr noundef %51)
  %53 = trunc i64 %52 to i32
  %54 = icmp sgt i32 %53, 0
  br i1 %54, label %55, label %_ZN14VrmlTranslator6Buffer19ReadNextStreamChunkEv.exit.thread

55:                                               ; preds = %45
  %56 = load i32, ptr %4, align 8
  %57 = add nsw i32 %56, %53
  store i32 %57, ptr %4, align 8
  store i32 %57, ptr %12, align 4
  %58 = load i32, ptr %2, align 8
  br label %_ZN14VrmlTranslator6Buffer19ReadNextStreamChunkEv.exit.thread.sink.split

_ZN14VrmlTranslator6Buffer19ReadNextStreamChunkEv.exit.thread.sink.split: ; preds = %1, %15, %55
  %.sink10 = phi i32 [ %58, %55 ], [ %23, %15 ], [ %3, %1 ]
  %.sink.in = getelementptr inbounds i8, ptr %0, i64 8
  %.sink = load ptr, ptr %.sink.in, align 8
  %59 = add nsw i32 %.sink10, 1
  store i32 %59, ptr %2, align 8
  %60 = sext i32 %.sink10 to i64
  %61 = getelementptr inbounds i8, ptr %.sink, i64 %60
  %62 = load i8, ptr %61, align 1
  %63 = zext i8 %62 to i32
  br label %_ZN14VrmlTranslator6Buffer19ReadNextStreamChunkEv.exit.thread

_ZN14VrmlTranslator6Buffer19ReadNextStreamChunkEv.exit.thread: ; preds = %_ZN14VrmlTranslator6Buffer19ReadNextStreamChunkEv.exit.thread.sink.split, %45, %24, %_ZN14VrmlTranslator6Buffer7CanSeekEv.exit
  %.0 = phi i32 [ 65536, %_ZN14VrmlTranslator6Buffer7CanSeekEv.exit ], [ 65536, %24 ], [ 65536, %45 ], [ %63, %_ZN14VrmlTranslator6Buffer19ReadNextStreamChunkEv.exit.thread.sink.split ]
  ret i32 %.0
}